; Function Attrs: nounwind uwtable
define void @Gia_ManPrintConeMulti(ptr noundef %0, ptr noundef readonly captures(none) %1, ptr noundef readonly captures(none) %2, ptr noundef initializes((4, 8)) %3) local_unnamed_addr #2 {
  %5 = getelementptr inbounds nuw i8, ptr %3, i64 4
  store i32 0, ptr %5, align 4
  tail call fastcc void @Vec_IntAppend(ptr noundef %3, ptr noundef %2)
  %6 = getelementptr i8, ptr %0, i64 32
  %7 = getelementptr i8, ptr %1, i64 4
  %.val3031 = load i32, ptr %7, align 4
  %8 = icmp sgt i32 %.val3031, 0
  br i1 %8, label %.lr.ph, label %.critedge

.lr.ph:                                           ; preds = %4
  %9 = getelementptr i8, ptr %1, i64 8
  %.val2544 = load ptr, ptr %6, align 8
  %.not45 = icmp eq ptr %.val2544, null
  br i1 %.not45, label %.critedge, label %.lr.ph48

10:                                               ; preds = %.lr.ph48
  %.val25 = load ptr, ptr %6, align 8
  %.not = icmp eq ptr %.val25, null
  br i1 %.not, label %.critedge, label %.lr.ph48, !llvm.loop !58

.lr.ph48:                                         ; preds = %.lr.ph, %10
  %.val2547 = phi ptr [ %.val25, %10 ], [ %.val2544, %.lr.ph ]
  %indvars.iv46 = phi i64 [ %indvars.iv.next, %10 ], [ 0, %.lr.ph ]
  %.val27 = load ptr, ptr %9, align 8
  %11 = getelementptr inbounds nuw i32, ptr %.val27, i64 %indvars.iv46
  %12 = load i32, ptr %11, align 4
  %13 = sext i32 %12 to i64
  %14 = getelementptr inbounds %struct.Gia_Obj_t_, ptr %.val2547, i64 %13
  tail call void @Gia_ManPrintCollect_rec(ptr noundef nonnull %0, ptr noundef nonnull %14, ptr noundef %3)
  %indvars.iv.next = add nuw nsw i64 %indvars.iv46, 1
  %.val30 = load i32, ptr %7, align 4
  %15 = sext i32 %.val30 to i64
  %16 = icmp slt i64 %indvars.iv.next, %15
  br i1 %16, label %10, label %.critedge, !llvm.loop !58

.critedge:                                        ; preds = %.lr.ph48, %10, %.lr.ph, %4
  %.val30.lcssa = phi i32 [ %.val3031, %4 ], [ %.val3031, %.lr.ph ], [ %.val30, %10 ], [ %.val30, %.lr.ph48 ]
  %17 = tail call i32 (ptr, ...) @printf(ptr noundef nonnull dereferenceable(1) @.str.23, i32 noundef %.val30.lcssa)
  %.val2836 = load i32, ptr %5, align 4
  %18 = icmp sgt i32 %.val2836, 0
  br i1 %18, label %.lr.ph38, label %.critedge2

.lr.ph38:                                         ; preds = %.critedge
  %19 = getelementptr i8, ptr %3, i64 8
  br label %20

20:                                               ; preds = %.lr.ph38, %21
  %indvars.iv41 = phi i64 [ 0, %.lr.ph38 ], [ %indvars.iv.next42, %21 ]
  %.val = load ptr, ptr %6, align 8
  %.not24 = icmp eq ptr %.val, null
  br i1 %.not24, label %.critedge2, label %21

21:                                               ; preds = %20
  %.val26 = load ptr, ptr %19, align 8
  %22 = getelementptr inbounds nuw i32, ptr %.val26, i64 %indvars.iv41
  %23 = load i32, ptr %22, align 4
  %24 = sext i32 %23 to i64
  %25 = getelementptr inbounds %struct.Gia_Obj_t_, ptr %.val, i64 %24
  tail call void @Gia_ObjPrint(ptr noundef nonnull %0, ptr noundef nonnull %25)
  %indvars.iv.next42 = add nuw nsw i64 %indvars.iv41, 1
  %.val28 = load i32, ptr %5, align 4
  %26 = sext i32 %.val28 to i64
  %27 = icmp slt i64 %indvars.iv.next42, %26
  br i1 %27, label %20, label %.critedge2, !llvm.loop !59

.critedge2:                                       ; preds = %20, %21, %.critedge
  ret void
}